libparatec.so.1 libparatec1 #MINVER#
 LIBPARATEC_1.0@LIBPARATEC_1.0 2.0.0
 _ZN2pt6assert5_failEPKcS2_z@LIBPARATEC_1.0 2.0.0
 _ZN2pt6assert6_checkIPKcS3_NS0_2InIS3_S3_EEEEvT_T0_S3_S3_P13__va_list_tag@LIBPARATEC_1.0 2.0.0
 _ZN2pt6assert6_checkIPKcS3_NS0_5NotInIS3_S3_EEEEvT_T0_S3_S3_P13__va_list_tag@LIBPARATEC_1.0 2.0.0
 _ZN2pt6assert6_checkIPKcS3_St10less_equalIS3_EEEvT_T0_S3_S3_P13__va_list_tag@LIBPARATEC_1.0 2.0.0
 _ZN2pt6assert6_checkIPKcS3_St12not_equal_toIS3_EEEvT_T0_S3_S3_P13__va_list_tag@LIBPARATEC_1.0 2.0.0
 _ZN2pt6assert6_checkIPKcS3_St13greater_equalIS3_EEEvT_T0_S3_S3_P13__va_list_tag@LIBPARATEC_1.0 2.0.0
 _ZN2pt6assert6_checkIPKcS3_St4lessIS3_EEEvT_T0_S3_S3_P13__va_list_tag@LIBPARATEC_1.0 2.0.0
 _ZN2pt6assert6_checkIPKcS3_St7greaterIS3_EEEvT_T0_S3_S3_P13__va_list_tag@LIBPARATEC_1.0 2.0.0
 _ZN2pt6assert6_checkIPKcS3_St8equal_toIS3_EEEvT_T0_S3_S3_P13__va_list_tag@LIBPARATEC_1.0 2.0.0
 _ZN2pt6assert6_checkIddSt10less_equalIdEEEvT_T0_PKcS7_P13__va_list_tag@LIBPARATEC_1.0 2.0.0
 _ZN2pt6assert6_checkIddSt12not_equal_toIdEEEvT_T0_PKcS7_P13__va_list_tag@LIBPARATEC_1.0 2.0.0
 _ZN2pt6assert6_checkIddSt13greater_equalIdEEEvT_T0_PKcS7_P13__va_list_tag@LIBPARATEC_1.0 2.0.0
 _ZN2pt6assert6_checkIddSt4lessIdEEEvT_T0_PKcS7_P13__va_list_tag@LIBPARATEC_1.0 2.0.0
 _ZN2pt6assert6_checkIddSt7greaterIdEEEvT_T0_PKcS7_P13__va_list_tag@LIBPARATEC_1.0 2.0.0
 _ZN2pt6assert6_checkIddSt8equal_toIdEEEvT_T0_PKcS7_P13__va_list_tag@LIBPARATEC_1.0 2.0.0
 _ZN2pt6assert6_checkIllSt10less_equalIlEEEvT_T0_PKcS7_P13__va_list_tag@LIBPARATEC_1.0 2.0.0
 _ZN2pt6assert6_checkIllSt12not_equal_toIlEEEvT_T0_PKcS7_P13__va_list_tag@LIBPARATEC_1.0 2.0.0
 _ZN2pt6assert6_checkIllSt13greater_equalIlEEEvT_T0_PKcS7_P13__va_list_tag@LIBPARATEC_1.0 2.0.0
 _ZN2pt6assert6_checkIllSt4lessIlEEEvT_T0_PKcS7_P13__va_list_tag@LIBPARATEC_1.0 2.0.0
 _ZN2pt6assert6_checkIllSt7greaterIlEEEvT_T0_PKcS7_P13__va_list_tag@LIBPARATEC_1.0 2.0.0
 _ZN2pt6assert6_checkIllSt8equal_toIlEEEvT_T0_PKcS7_P13__va_list_tag@LIBPARATEC_1.0 2.0.0
 _ZN2pt6assert6_checkImmSt10less_equalImEEEvT_T0_PKcS7_P13__va_list_tag@LIBPARATEC_1.0 2.0.0
 _ZN2pt6assert6_checkImmSt12not_equal_toImEEEvT_T0_PKcS7_P13__va_list_tag@LIBPARATEC_1.0 2.0.0
 _ZN2pt6assert6_checkImmSt13greater_equalImEEEvT_T0_PKcS7_P13__va_list_tag@LIBPARATEC_1.0 2.0.0
 _ZN2pt6assert6_checkImmSt4lessImEEEvT_T0_PKcS7_P13__va_list_tag@LIBPARATEC_1.0 2.0.0
 _ZN2pt6assert6_checkImmSt7greaterImEEEvT_T0_PKcS7_P13__va_list_tag@LIBPARATEC_1.0 2.0.0
 _ZN2pt6assert6_checkImmSt8equal_toImEEEvT_T0_PKcS7_P13__va_list_tag@LIBPARATEC_1.0 2.0.0
 _ZNK2pt6assert2InIPKcS3_EclES3_RKS3_@LIBPARATEC_1.0 2.0.0
 _pt_eq@LIBPARATEC_1.0 2.0.0
 _pt_fail@LIBPARATEC_1.0 2.0.0
 _pt_feq@LIBPARATEC_1.0 2.0.0
 _pt_fge@LIBPARATEC_1.0 2.0.0
 _pt_fgt@LIBPARATEC_1.0 2.0.0
 _pt_fle@LIBPARATEC_1.0 2.0.0
 _pt_flt@LIBPARATEC_1.0 2.0.0
 _pt_fne@LIBPARATEC_1.0 2.0.0
 _pt_ge@LIBPARATEC_1.0 2.0.0
 _pt_gt@LIBPARATEC_1.0 2.0.0
 _pt_le@LIBPARATEC_1.0 2.0.0
 _pt_lt@LIBPARATEC_1.0 2.0.0
 _pt_mark@LIBPARATEC_1.0 2.0.0
 _pt_ne@LIBPARATEC_1.0 2.0.0
 _pt_ner@LIBPARATEC_1.0 2.0.0
 _pt_seq@LIBPARATEC_1.0 2.0.0
 _pt_sge@LIBPARATEC_1.0 2.0.0
 _pt_sgt@LIBPARATEC_1.0 2.0.0
 _pt_sin@LIBPARATEC_1.0 2.0.0
 _pt_sle@LIBPARATEC_1.0 2.0.0
 _pt_slt@LIBPARATEC_1.0 2.0.0
 _pt_sne@LIBPARATEC_1.0 2.0.0
 _pt_sni@LIBPARATEC_1.0 2.0.0
 _pt_ueq@LIBPARATEC_1.0 2.0.0
 _pt_uge@LIBPARATEC_1.0 2.0.0
 _pt_ugt@LIBPARATEC_1.0 2.0.0
 _pt_ule@LIBPARATEC_1.0 2.0.0
 _pt_ult@LIBPARATEC_1.0 2.0.0
 _pt_une@LIBPARATEC_1.0 2.0.0
 main@LIBPARATEC_1.0 2.0.0
 pt_get_name@LIBPARATEC_1.0 2.0.0
 pt_get_port@LIBPARATEC_1.0 2.0.0
 pt_set_iter_name@LIBPARATEC_1.0 2.0.0
 pt_skip@LIBPARATEC_1.0 2.0.0
